target datalayout = "e-m:e-p270:32:32-p271:32:32-p272:64:64-i64:64-f80:128-n8:16:32:64-S128"
target triple = "x86_64-pc-linux-gnu"

@.str = private unnamed_addr constant [6 x i8] c"%d,%d\00", align 1
@__const.main.min = private unnamed_addr constant [8 x i32] [i32 2222, i32 2222, i32 2222, i32 2222, i32 2222, i32 2222, i32 2222, i32 2222], align 16
@.str.1 = private unnamed_addr constant [3 x i8] c"%d\00", align 1
@.str.2 = private unnamed_addr constant [6 x i8] c"%d+%d\00", align 1
@.str.3 = private unnamed_addr constant [3 x i8] c"No\00", align 1

; Function Attrs: noinline nounwind uwtable
define dso_local i32 @main() #0 {
  %1 = alloca i32, align 4
  %2 = alloca i32, align 4
  %3 = alloca i32, align 4
  %4 = alloca i32, align 4
  %5 = alloca i32, align 4
  %6 = alloca i32, align 4
  %7 = alloca i32, align 4
  %8 = alloca i32, align 4
  %9 = alloca [8 x [8 x i32]], align 16
  %10 = alloca [8 x i32], align 16
  %11 = alloca [8 x i32], align 16
  store i32 0, i32* %1, align 4
  store i32 0, i32* %8, align 4
  %12 = call i32 (i8*, ...) @__isoc99_scanf(i8* getelementptr inbounds ([6 x i8], [6 x i8]* @.str, i64 0, i64 0), i32* %2, i32* %3)
  %13 = bitcast [8 x i32]* %10 to i8*
  call void @llvm.memset.p0i8.i64(i8* align 16 %13, i8 0, i64 32, i1 false)
  %14 = bitcast [8 x i32]* %11 to i8*
  call void @llvm.memcpy.p0i8.p0i8.i64(i8* align 16 %14, i8* align 16 bitcast ([8 x i32]* @__const.main.min to i8*), i64 32, i1 false)
  store i32 0, i32* %4, align 4
  br label %15

15:                                               ; preds = %36, %0
  %16 = load i32, i32* %4, align 4
  %17 = load i32, i32* %2, align 4
  %18 = icmp slt i32 %16, %17
  br i1 %18, label %19, label %39

19:                                               ; preds = %15
  store i32 0, i32* %5, align 4
  br label %20

20:                                               ; preds = %32, %19
  %21 = load i32, i32* %5, align 4
  %22 = load i32, i32* %3, align 4
  %23 = icmp slt i32 %21, %22
  br i1 %23, label %24, label %35

24:                                               ; preds = %20
  %25 = load i32, i32* %4, align 4
  %26 = sext i32 %25 to i64
  %27 = getelementptr inbounds [8 x [8 x i32]], [8 x [8 x i32]]* %9, i64 0, i64 %26
  %28 = load i32, i32* %5, align 4
  %29 = sext i32 %28 to i64
  %30 = getelementptr inbounds [8 x i32], [8 x i32]* %27, i64 0, i64 %29
  %31 = call i32 (i8*, ...) @__isoc99_scanf(i8* getelementptr inbounds ([3 x i8], [3 x i8]* @.str.1, i64 0, i64 0), i32* %30)
  br label %32

32:                                               ; preds = %24
  %33 = load i32, i32* %5, align 4
  %34 = add nsw i32 %33, 1
  store i32 %34, i32* %5, align 4
  br label %20

35:                                               ; preds = %20
  br label %36

36:                                               ; preds = %35
  %37 = load i32, i32* %4, align 4
  %38 = add nsw i32 %37, 1
  store i32 %38, i32* %4, align 4
  br label %15

39:                                               ; preds = %15
  store i32 0, i32* %4, align 4
  br label %40

40:                                               ; preds = %78, %39
  %41 = load i32, i32* %4, align 4
  %42 = load i32, i32* %2, align 4
  %43 = icmp slt i32 %41, %42
  br i1 %43, label %44, label %81

44:                                               ; preds = %40
  store i32 0, i32* %5, align 4
  br label %45

45:                                               ; preds = %74, %44
  %46 = load i32, i32* %5, align 4
  %47 = load i32, i32* %3, align 4
  %48 = icmp slt i32 %46, %47
  br i1 %48, label %49, label %77

49:                                               ; preds = %45
  %50 = load i32, i32* %4, align 4
  %51 = sext i32 %50 to i64
  %52 = getelementptr inbounds [8 x [8 x i32]], [8 x [8 x i32]]* %9, i64 0, i64 %51
  %53 = load i32, i32* %5, align 4
  %54 = sext i32 %53 to i64
  %55 = getelementptr inbounds [8 x i32], [8 x i32]* %52, i64 0, i64 %54
  %56 = load i32, i32* %55, align 4
  %57 = load i32, i32* %4, align 4
  %58 = sext i32 %57 to i64
  %59 = getelementptr inbounds [8 x i32], [8 x i32]* %10, i64 0, i64 %58
  %60 = load i32, i32* %59, align 4
  %61 = icmp sgt i32 %56, %60
  br i1 %61, label %62, label %73

62:                                               ; preds = %49
  %63 = load i32, i32* %4, align 4
  %64 = sext i32 %63 to i64
  %65 = getelementptr inbounds [8 x [8 x i32]], [8 x [8 x i32]]* %9, i64 0, i64 %64
  %66 = load i32, i32* %5, align 4
  %67 = sext i32 %66 to i64
  %68 = getelementptr inbounds [8 x i32], [8 x i32]* %65, i64 0, i64 %67
  %69 = load i32, i32* %68, align 4
  %70 = load i32, i32* %4, align 4
  %71 = sext i32 %70 to i64
  %72 = getelementptr inbounds [8 x i32], [8 x i32]* %10, i64 0, i64 %71
  store i32 %69, i32* %72, align 4
  br label %73

73:                                               ; preds = %62, %49
  br label %74

74:                                               ; preds = %73
  %75 = load i32, i32* %5, align 4
  %76 = add nsw i32 %75, 1
  store i32 %76, i32* %5, align 4
  br label %45

77:                                               ; preds = %45
  br label %78

78:                                               ; preds = %77
  %79 = load i32, i32* %4, align 4
  %80 = add nsw i32 %79, 1
  store i32 %80, i32* %4, align 4
  br label %40

81:                                               ; preds = %40
  store i32 0, i32* %5, align 4
  br label %82

82:                                               ; preds = %120, %81
  %83 = load i32, i32* %5, align 4
  %84 = load i32, i32* %3, align 4
  %85 = icmp slt i32 %83, %84
  br i1 %85, label %86, label %123

86:                                               ; preds = %82
  store i32 0, i32* %4, align 4
  br label %87

87:                                               ; preds = %116, %86
  %88 = load i32, i32* %4, align 4
  %89 = load i32, i32* %2, align 4
  %90 = icmp slt i32 %88, %89
  br i1 %90, label %91, label %119

91:                                               ; preds = %87
  %92 = load i32, i32* %4, align 4
  %93 = sext i32 %92 to i64
  %94 = getelementptr inbounds [8 x [8 x i32]], [8 x [8 x i32]]* %9, i64 0, i64 %93
  %95 = load i32, i32* %5, align 4
  %96 = sext i32 %95 to i64
  %97 = getelementptr inbounds [8 x i32], [8 x i32]* %94, i64 0, i64 %96
  %98 = load i32, i32* %97, align 4
  %99 = load i32, i32* %5, align 4
  %100 = sext i32 %99 to i64
  %101 = getelementptr inbounds [8 x i32], [8 x i32]* %11, i64 0, i64 %100
  %102 = load i32, i32* %101, align 4
  %103 = icmp slt i32 %98, %102
  br i1 %103, label %104, label %115

104:                                              ; preds = %91
  %105 = load i32, i32* %4, align 4
  %106 = sext i32 %105 to i64
  %107 = getelementptr inbounds [8 x [8 x i32]], [8 x [8 x i32]]* %9, i64 0, i64 %106
  %108 = load i32, i32* %5, align 4
  %109 = sext i32 %108 to i64
  %110 = getelementptr inbounds [8 x i32], [8 x i32]* %107, i64 0, i64 %109
  %111 = load i32, i32* %110, align 4
  %112 = load i32, i32* %5, align 4
  %113 = sext i32 %112 to i64
  %114 = getelementptr inbounds [8 x i32], [8 x i32]* %11, i64 0, i64 %113
  store i32 %111, i32* %114, align 4
  br label %115

115:                                              ; preds = %104, %91
  br label %116

116:                                              ; preds = %115
  %117 = load i32, i32* %4, align 4
  %118 = add nsw i32 %117, 1
  store i32 %118, i32* %4, align 4
  br label %87

119:                                              ; preds = %87
  br label %120

120:                                              ; preds = %119
  %121 = load i32, i32* %5, align 4
  %122 = add nsw i32 %121, 1
  store i32 %122, i32* %5, align 4
  br label %82

123:                                              ; preds = %82
  store i32 0, i32* %4, align 4
  br label %124

124:                                              ; preds = %151, %123
  %125 = load i32, i32* %4, align 4
  %126 = load i32, i32* %2, align 4
  %127 = icmp slt i32 %125, %126
  br i1 %127, label %128, label %154

128:                                              ; preds = %124
  store i32 0, i32* %5, align 4
  br label %129

129:                                              ; preds = %147, %128
  %130 = load i32, i32* %5, align 4
  %131 = load i32, i32* %3, align 4
  %132 = icmp slt i32 %130, %131
  br i1 %132, label %133, label %150

133:                                              ; preds = %129
  %134 = load i32, i32* %4, align 4
  %135 = sext i32 %134 to i64
  %136 = getelementptr inbounds [8 x i32], [8 x i32]* %10, i64 0, i64 %135
  %137 = load i32, i32* %136, align 4
  %138 = load i32, i32* %5, align 4
  %139 = sext i32 %138 to i64
  %140 = getelementptr inbounds [8 x i32], [8 x i32]* %11, i64 0, i64 %139
  %141 = load i32, i32* %140, align 4
  %142 = icmp eq i32 %137, %141
  br i1 %142, label %143, label %146

143:                                              ; preds = %133
  store i32 1, i32* %8, align 4
  %144 = load i32, i32* %4, align 4
  store i32 %144, i32* %6, align 4
  %145 = load i32, i32* %5, align 4
  store i32 %145, i32* %7, align 4
  br label %150

146:                                              ; preds = %133
  br label %147

147:                                              ; preds = %146
  %148 = load i32, i32* %5, align 4
  %149 = add nsw i32 %148, 1
  store i32 %149, i32* %5, align 4
  br label %129

150:                                              ; preds = %143, %129
  br label %151

151:                                              ; preds = %150
  %152 = load i32, i32* %4, align 4
  %153 = add nsw i32 %152, 1
  store i32 %153, i32* %4, align 4
  br label %124

154:                                              ; preds = %124
  %155 = load i32, i32* %8, align 4
  %156 = icmp eq i32 %155, 1
  br i1 %156, label %157, label %161

157:                                              ; preds = %154
  %158 = load i32, i32* %6, align 4
  %159 = load i32, i32* %7, align 4
  %160 = call i32 (i8*, ...) @printf(i8* getelementptr inbounds ([6 x i8], [6 x i8]* @.str.2, i64 0, i64 0), i32 %158, i32 %159)
  br label %163

161:                                              ; preds = %154
  %162 = call i32 (i8*, ...) @printf(i8* getelementptr inbounds ([3 x i8], [3 x i8]* @.str.3, i64 0, i64 0))
  br label %163

163:                                              ; preds = %161, %157
  ret i32 0
}